target datalayout = "e-m:e-p270:32:32-p271:32:32-p272:64:64-i64:64-i128:128-f80:128-n8:16:32:64-S128"
target triple = "x86_64-unknown-linux-gnu"

%"struct.cvc5::internal::Minisat::Lit" = type { i32 }
%"class.cvc5::internal::Minisat::vec.5" = type { ptr, i32, i32 }

@_ZTIN4cvc58internal7Minisat20OutOfMemoryExceptionE = linkonce_odr hidden constant { ptr, ptr } { ptr getelementptr inbounds (ptr, ptr @_ZTVN10__cxxabiv117__class_type_infoE, i64 2), ptr @_ZTSN4cvc58internal7Minisat20OutOfMemoryExceptionE }, comdat, align 8

; Function Attrs: mustprogress nounwind uwtable
define linkonce_odr hidden noundef i32 @_ZN4cvc58internal7Minisat3vecIjE4imaxEii(i32 noundef %x, i32 noundef %y) #4 comdat align 2 {
entry:
  %x.addr = alloca i32, align 4
  %y.addr = alloca i32, align 4
  %mask = alloca i32, align 4
  store i32 %x, ptr %x.addr, align 4
  store i32 %y, ptr %y.addr, align 4
  %0 = load i32, ptr %y.addr, align 4
  %1 = load i32, ptr %x.addr, align 4
  %sub = sub nsw i32 %0, %1
  %shr = ashr i32 %sub, 31
  store i32 %shr, ptr %mask, align 4
  %2 = load i32, ptr %x.addr, align 4
  %3 = load i32, ptr %mask, align 4
  %and = and i32 %2, %3
  %4 = load i32, ptr %y.addr, align 4
  %5 = load i32, ptr %mask, align 4
  %not = xor i32 %5, -1
  %and1 = and i32 %4, %not
  %add = add nsw i32 %and, %and1
  ret i32 %add
}

; Function Attrs: mustprogress uwtable
define linkonce_odr hidden void @_ZN4cvc58internal7Minisat3vecIjE8capacityEi(ptr noundef nonnull align 8 dereferenceable(16) %this, i32 noundef %min_cap) #5 comdat align 2 {
entry:
  %this.addr = alloca ptr, align 8
  %min_cap.addr = alloca i32, align 4
  %add = alloca i32, align 4
  store ptr %this, ptr %this.addr, align 8
  store i32 %min_cap, ptr %min_cap.addr, align 4
  %this1 = load ptr, ptr %this.addr, align 8
  %cap = getelementptr inbounds %"class.cvc5::internal::Minisat::vec.5", ptr %this1, i32 0, i32 2
  %0 = load i32, ptr %cap, align 4
  %1 = load i32, ptr %min_cap.addr, align 4
  %cmp = icmp sge i32 %0, %1
  br i1 %cmp, label %if.then, label %if.end

if.then:                                          ; preds = %entry
  br label %if.end18

if.end:                                           ; preds = %entry
  %2 = load i32, ptr %min_cap.addr, align 4
  %cap2 = getelementptr inbounds %"class.cvc5::internal::Minisat::vec.5", ptr %this1, i32 0, i32 2
  %3 = load i32, ptr %cap2, align 4
  %sub = sub nsw i32 %2, %3
  %add3 = add nsw i32 %sub, 1
  %and = and i32 %add3, -2
  %cap4 = getelementptr inbounds %"class.cvc5::internal::Minisat::vec.5", ptr %this1, i32 0, i32 2
  %4 = load i32, ptr %cap4, align 4
  %shr = ashr i32 %4, 1
  %add5 = add nsw i32 %shr, 2
  %and6 = and i32 %add5, -2
  %call = call noundef i32 @_ZN4cvc58internal7Minisat3vecIjE4imaxEii(i32 noundef %and, i32 noundef %and6)
  store i32 %call, ptr %add, align 4
  %5 = load i32, ptr %add, align 4
  %cap7 = getelementptr inbounds %"class.cvc5::internal::Minisat::vec.5", ptr %this1, i32 0, i32 2
  %6 = load i32, ptr %cap7, align 4
  %sub8 = sub nsw i32 2147483647, %6
  %cmp9 = icmp sgt i32 %5, %sub8
  br i1 %cmp9, label %if.then17, label %lor.lhs.false

lor.lhs.false:                                    ; preds = %if.end
  %data = getelementptr inbounds %"class.cvc5::internal::Minisat::vec.5", ptr %this1, i32 0, i32 0
  %7 = load ptr, ptr %data, align 8
  %8 = load i32, ptr %add, align 4
  %cap10 = getelementptr inbounds %"class.cvc5::internal::Minisat::vec.5", ptr %this1, i32 0, i32 2
  %9 = load i32, ptr %cap10, align 4
  %add11 = add nsw i32 %9, %8
  store i32 %add11, ptr %cap10, align 4
  %conv = sext i32 %add11 to i64
  %mul = mul i64 %conv, 4
  %call12 = call ptr @realloc(ptr noundef %7, i64 noundef %mul) #19
  %data13 = getelementptr inbounds %"class.cvc5::internal::Minisat::vec.5", ptr %this1, i32 0, i32 0
  store ptr %call12, ptr %data13, align 8
  %cmp14 = icmp eq ptr %call12, null
  br i1 %cmp14, label %land.lhs.true, label %if.end18

land.lhs.true:                                    ; preds = %lor.lhs.false
  %call15 = call ptr @__errno_location() #20
  %10 = load i32, ptr %call15, align 4
  %cmp16 = icmp eq i32 %10, 12
  br i1 %cmp16, label %if.then17, label %if.end18

if.then17:                                        ; preds = %land.lhs.true, %if.end
  %exception = call ptr @__cxa_allocate_exception(i64 1) #3
  call void @__cxa_throw(ptr %exception, ptr @_ZTIN4cvc58internal7Minisat20OutOfMemoryExceptionE, ptr null) #21
  unreachable

if.end18:                                         ; preds = %land.lhs.true, %lor.lhs.false, %if.then
  ret void
}

; Function Attrs: mustprogress uwtable
define linkonce_odr hidden void @_ZN4cvc58internal7Minisat3vecIjE4pushERKj(ptr noundef nonnull align 8 dereferenceable(16) %this, ptr noundef nonnull align 4 dereferenceable(4) %elem) #5 comdat align 2 {
entry:
  %this.addr = alloca ptr, align 8
  %elem.addr = alloca ptr, align 8
  store ptr %this, ptr %this.addr, align 8
  store ptr %elem, ptr %elem.addr, align 8
  %this1 = load ptr, ptr %this.addr, align 8
  %sz = getelementptr inbounds %"class.cvc5::internal::Minisat::vec.5", ptr %this1, i32 0, i32 1
  %0 = load i32, ptr %sz, align 8
  %cap = getelementptr inbounds %"class.cvc5::internal::Minisat::vec.5", ptr %this1, i32 0, i32 2
  %1 = load i32, ptr %cap, align 4
  %cmp = icmp eq i32 %0, %1
  br i1 %cmp, label %if.then, label %if.end

if.then:                                          ; preds = %entry
  %sz2 = getelementptr inbounds %"class.cvc5::internal::Minisat::vec.5", ptr %this1, i32 0, i32 1
  %2 = load i32, ptr %sz2, align 8
  %add = add nsw i32 %2, 1
  call void @_ZN4cvc58internal7Minisat3vecIjE8capacityEi(ptr noundef nonnull align 8 dereferenceable(16) %this1, i32 noundef %add)
  br label %if.end

if.end:                                           ; preds = %if.then, %entry
  %3 = load ptr, ptr %elem.addr, align 8
  %4 = load i32, ptr %3, align 4
  %data = getelementptr inbounds %"class.cvc5::internal::Minisat::vec.5", ptr %this1, i32 0, i32 0
  %5 = load ptr, ptr %data, align 8
  %sz3 = getelementptr inbounds %"class.cvc5::internal::Minisat::vec.5", ptr %this1, i32 0, i32 1
  %6 = load i32, ptr %sz3, align 8
  %inc = add nsw i32 %6, 1
  store i32 %inc, ptr %sz3, align 8
  %idxprom = sext i32 %6 to i64
  %arrayidx = getelementptr inbounds i32, ptr %5, i64 %idxprom
  store i32 %4, ptr %arrayidx, align 4
  ret void
}

; Function Attrs: mustprogress nounwind uwtable
define linkonce_odr hidden noundef i32 @_ZN4cvc58internal7Minisat5toIntENS1_3LitE(i32 %p.coerce) #4 comdat {
entry:
  %p = alloca %"struct.cvc5::internal::Minisat::Lit", align 4
  %coerce.dive = getelementptr inbounds %"struct.cvc5::internal::Minisat::Lit", ptr %p, i32 0, i32 0
  store i32 %p.coerce, ptr %coerce.dive, align 4
  %x = getelementptr inbounds %"struct.cvc5::internal::Minisat::Lit", ptr %p, i32 0, i32 0
  %0 = load i32, ptr %x, align 4
  ret i32 %0
}

; Function Attrs: mustprogress uwtable
define internal void @_ZL12mkElimClauseRN4cvc58internal7Minisat3vecIjEENS1_3LitE(ptr noundef nonnull align 8 dereferenceable(16) %elimclauses, i32 %x.coerce) #5 {
entry:
  %x = alloca %"struct.cvc5::internal::Minisat::Lit", align 4
  %elimclauses.addr = alloca ptr, align 8
  %ref.tmp = alloca i32, align 4
  %agg.tmp = alloca %"struct.cvc5::internal::Minisat::Lit", align 4
  %ref.tmp2 = alloca i32, align 4
  %coerce.dive = getelementptr inbounds %"struct.cvc5::internal::Minisat::Lit", ptr %x, i32 0, i32 0
  store i32 %x.coerce, ptr %coerce.dive, align 4
  store ptr %elimclauses, ptr %elimclauses.addr, align 8
  %0 = load ptr, ptr %elimclauses.addr, align 8
  call void @llvm.memcpy.p0.p0.i64(ptr align 4 %agg.tmp, ptr align 4 %x, i64 4, i1 false)
  %coerce.dive1 = getelementptr inbounds %"struct.cvc5::internal::Minisat::Lit", ptr %agg.tmp, i32 0, i32 0
  %1 = load i32, ptr %coerce.dive1, align 4
  %call = call noundef i32 @_ZN4cvc58internal7Minisat5toIntENS1_3LitE(i32 %1)
  store i32 %call, ptr %ref.tmp, align 4
  call void @_ZN4cvc58internal7Minisat3vecIjE4pushERKj(ptr noundef nonnull align 8 dereferenceable(16) %0, ptr noundef nonnull align 4 dereferenceable(4) %ref.tmp)
  %2 = load ptr, ptr %elimclauses.addr, align 8
  store i32 1, ptr %ref.tmp2, align 4
  call void @_ZN4cvc58internal7Minisat3vecIjE4pushERKj(ptr noundef nonnull align 8 dereferenceable(16) %2, ptr noundef nonnull align 4 dereferenceable(4) %ref.tmp2)
  ret void
}