; Function Attrs: mustprogress uwtable
define internal fastcc void @_ZL12mkElimClauseRN4cvc58internal7Minisat3vecIjEENS1_3LitE(ptr nocapture noundef nonnull align 8 dereferenceable(16) %elimclauses, i32 %x.coerce) unnamed_addr #4 {
entry:
  %sz.i = getelementptr inbounds i8, ptr %elimclauses, i64 8
  %0 = load i32, ptr %sz.i, align 8
  %cap.i = getelementptr inbounds i8, ptr %elimclauses, i64 12
  %1 = load i32, ptr %cap.i, align 4
  %cmp.i = icmp eq i32 %0, %1
  br i1 %cmp.i, label %if.end.i.i, label %entry.if.end_crit_edge.i

entry.if.end_crit_edge.i:                         ; preds = %entry
  %.pre.i = load ptr, ptr %elimclauses, align 8
  br label %_ZN4cvc58internal7Minisat3vecIjE4pushERKj.exit

if.end.i.i:                                       ; preds = %entry
  %shr.i.i = ashr i32 %0, 1
  %2 = and i32 %shr.i.i, -2
  %3 = tail call i32 @llvm.smax.i32(i32 %2, i32 0)
  %add.i.i.i = add nuw nsw i32 %3, 2
  %sub8.i.i = sub nsw i32 2147483647, %0
  %cmp9.i.i = icmp ugt i32 %add.i.i.i, %sub8.i.i
  br i1 %cmp9.i.i, label %if.then17.i.i, label %lor.lhs.false.i.i

lor.lhs.false.i.i:                                ; preds = %if.end.i.i
  %4 = load ptr, ptr %elimclauses, align 8
  %add11.i.i = add nsw i32 %add.i.i.i, %0
  store i32 %add11.i.i, ptr %cap.i, align 4
  %conv.i.i = sext i32 %add11.i.i to i64
  %mul.i.i = shl nsw i64 %conv.i.i, 2
  %call12.i.i = tail call ptr @realloc(ptr noundef %4, i64 noundef %mul.i.i) #27
  store ptr %call12.i.i, ptr %elimclauses, align 8
  %cmp14.i.i = icmp eq ptr %call12.i.i, null
  br i1 %cmp14.i.i, label %land.lhs.true.i.i, label %lor.lhs.false.i.i._ZN4cvc58internal7Minisat3vecIjE4pushERKj.exit_crit_edge

lor.lhs.false.i.i._ZN4cvc58internal7Minisat3vecIjE4pushERKj.exit_crit_edge: ; preds = %lor.lhs.false.i.i
  %.pre = load i32, ptr %sz.i, align 8
  br label %_ZN4cvc58internal7Minisat3vecIjE4pushERKj.exit

land.lhs.true.i.i:                                ; preds = %lor.lhs.false.i.i
  %call15.i.i = tail call ptr @__errno_location() #24
  %5 = load i32, ptr %call15.i.i, align 4
  %cmp16.i.i = icmp eq i32 %5, 12
  tail call void @llvm.assume(i1 %cmp16.i.i)
  br label %if.then17.i.i

if.then17.i.i:                                    ; preds = %land.lhs.true.i.i, %if.end.i.i
  %exception.i.i = tail call ptr @__cxa_allocate_exception(i64 1) #25
  tail call void @__cxa_throw(ptr %exception.i.i, ptr nonnull @_ZTIN4cvc58internal7Minisat20OutOfMemoryExceptionE, ptr null) #26
  unreachable

_ZN4cvc58internal7Minisat3vecIjE4pushERKj.exit:   ; preds = %lor.lhs.false.i.i._ZN4cvc58internal7Minisat3vecIjE4pushERKj.exit_crit_edge, %entry.if.end_crit_edge.i
  %6 = phi i32 [ %0, %entry.if.end_crit_edge.i ], [ %.pre, %lor.lhs.false.i.i._ZN4cvc58internal7Minisat3vecIjE4pushERKj.exit_crit_edge ]
  %7 = phi ptr [ %.pre.i, %entry.if.end_crit_edge.i ], [ %call12.i.i, %lor.lhs.false.i.i._ZN4cvc58internal7Minisat3vecIjE4pushERKj.exit_crit_edge ]
  %inc.i = add nsw i32 %6, 1
  store i32 %inc.i, ptr %sz.i, align 8
  %idxprom.i = sext i32 %6 to i64
  %arrayidx.i = getelementptr inbounds i32, ptr %7, i64 %idxprom.i
  store i32 %x.coerce, ptr %arrayidx.i, align 4
  %8 = load i32, ptr %sz.i, align 8
  %9 = load i32, ptr %cap.i, align 4
  %cmp.i4 = icmp eq i32 %8, %9
  br i1 %cmp.i4, label %if.end.i.i10, label %entry.if.end_crit_edge.i5

entry.if.end_crit_edge.i5:                        ; preds = %_ZN4cvc58internal7Minisat3vecIjE4pushERKj.exit
  %.pre.i6 = load ptr, ptr %elimclauses, align 8
  br label %_ZN4cvc58internal7Minisat3vecIjE4pushERKj.exit26

if.end.i.i10:                                     ; preds = %_ZN4cvc58internal7Minisat3vecIjE4pushERKj.exit
  %shr.i.i11 = ashr i32 %8, 1
  %10 = and i32 %shr.i.i11, -2
  %11 = tail call i32 @llvm.smax.i32(i32 %10, i32 0)
  %add.i.i.i12 = add nuw nsw i32 %11, 2
  %sub8.i.i13 = sub nsw i32 2147483647, %8
  %cmp9.i.i14 = icmp ugt i32 %add.i.i.i12, %sub8.i.i13
  br i1 %cmp9.i.i14, label %if.then17.i.i24, label %lor.lhs.false.i.i15

lor.lhs.false.i.i15:                              ; preds = %if.end.i.i10
  %12 = load ptr, ptr %elimclauses, align 8
  %add11.i.i16 = add nsw i32 %add.i.i.i12, %8
  store i32 %add11.i.i16, ptr %cap.i, align 4
  %conv.i.i17 = sext i32 %add11.i.i16 to i64
  %mul.i.i18 = shl nsw i64 %conv.i.i17, 2
  %call12.i.i19 = tail call ptr @realloc(ptr noundef %12, i64 noundef %mul.i.i18) #27
  store ptr %call12.i.i19, ptr %elimclauses, align 8
  %cmp14.i.i20 = icmp eq ptr %call12.i.i19, null
  br i1 %cmp14.i.i20, label %land.lhs.true.i.i21, label %lor.lhs.false.i.i15._ZN4cvc58internal7Minisat3vecIjE4pushERKj.exit26_crit_edge

lor.lhs.false.i.i15._ZN4cvc58internal7Minisat3vecIjE4pushERKj.exit26_crit_edge: ; preds = %lor.lhs.false.i.i15
  %.pre27 = load i32, ptr %sz.i, align 8
  br label %_ZN4cvc58internal7Minisat3vecIjE4pushERKj.exit26

land.lhs.true.i.i21:                              ; preds = %lor.lhs.false.i.i15
  %call15.i.i22 = tail call ptr @__errno_location() #24
  %13 = load i32, ptr %call15.i.i22, align 4
  %cmp16.i.i23 = icmp eq i32 %13, 12
  tail call void @llvm.assume(i1 %cmp16.i.i23)
  br label %if.then17.i.i24

if.then17.i.i24:                                  ; preds = %land.lhs.true.i.i21, %if.end.i.i10
  %exception.i.i25 = tail call ptr @__cxa_allocate_exception(i64 1) #25
  tail call void @__cxa_throw(ptr %exception.i.i25, ptr nonnull @_ZTIN4cvc58internal7Minisat20OutOfMemoryExceptionE, ptr null) #26
  unreachable

_ZN4cvc58internal7Minisat3vecIjE4pushERKj.exit26: ; preds = %lor.lhs.false.i.i15._ZN4cvc58internal7Minisat3vecIjE4pushERKj.exit26_crit_edge, %entry.if.end_crit_edge.i5
  %14 = phi i32 [ %8, %entry.if.end_crit_edge.i5 ], [ %.pre27, %lor.lhs.false.i.i15._ZN4cvc58internal7Minisat3vecIjE4pushERKj.exit26_crit_edge ]
  %15 = phi ptr [ %.pre.i6, %entry.if.end_crit_edge.i5 ], [ %call12.i.i19, %lor.lhs.false.i.i15._ZN4cvc58internal7Minisat3vecIjE4pushERKj.exit26_crit_edge ]
  %inc.i7 = add nsw i32 %14, 1
  store i32 %inc.i7, ptr %sz.i, align 8
  %idxprom.i8 = sext i32 %14 to i64
  %arrayidx.i9 = getelementptr inbounds i32, ptr %15, i64 %idxprom.i8
  store i32 1, ptr %arrayidx.i9, align 4
  ret void
}